; Function Attrs: mustprogress nounwind uwtable
define internal noundef nonnull ptr @_ZL40initializeSlotIndexesWrapperPassPassOnceRN4llvm12PassRegistryE(ptr noundef nonnull align 8 dereferenceable(160) %0) #0 {
  %2 = tail call noalias noundef nonnull dereferenceable(56) ptr @_Znwm(i64 noundef 56) #16
  store ptr @.str.9, ptr %2, align 8
  %.sroa.25.0..sroa_idx.i = getelementptr inbounds nuw i8, ptr %2, i64 8
  store i64 20, ptr %.sroa.25.0..sroa_idx.i, align 8
  %3 = getelementptr inbounds nuw i8, ptr %2, i64 16
  store ptr @.str.1, ptr %3, align 8
  %.sroa.2.0..sroa_idx.i = getelementptr inbounds nuw i8, ptr %2, i64 24
  store i64 11, ptr %.sroa.2.0..sroa_idx.i, align 8
  %4 = getelementptr inbounds nuw i8, ptr %2, i64 32
  store ptr @_ZN4llvm22SlotIndexesWrapperPass2IDE, ptr %4, align 8
  %5 = getelementptr inbounds nuw i8, ptr %2, i64 40
  store i8 0, ptr %5, align 8
  %6 = getelementptr inbounds nuw i8, ptr %2, i64 41
  store i8 0, ptr %6, align 1
  %7 = getelementptr inbounds nuw i8, ptr %2, i64 48
  store ptr @_ZN4llvm15callDefaultCtorINS_22SlotIndexesWrapperPassETnNSt9enable_ifIXtlSt24is_default_constructibleIT_EEEbE4typeELb1EEEPNS_4PassEv, ptr %7, align 8
  tail call void @_ZN4llvm12PassRegistry12registerPassERKNS_8PassInfoEb(ptr noundef nonnull align 8 dereferenceable(160) %0, ptr noundef nonnull align 8 dereferenceable(56) %2, i1 noundef zeroext true) #14
  ret ptr %2
}